target datalayout = "e-m:e-p270:32:32-p271:32:32-p272:64:64-i64:64-i128:128-f80:128-n8:16:32:64-S128"
target triple = "x86_64-pc-linux-gnu"

%struct.ZDICT_params_t = type { i32, i32, i32 }

@stderr = external global ptr, align 8
@.str = private unnamed_addr constant [7 x i8] c"\0D%70s\0D\00", align 1
@.str.1 = private unnamed_addr constant [1 x i8] zeroinitializer, align 1
@.str.2 = private unnamed_addr constant [17 x i8] c"statistics ... \0A\00", align 1

; Function Attrs: inlinehint nounwind uwtable
define internal i32 @MEM_swap32(i32 noundef %0) #1 {
  %2 = alloca i32, align 4
  store i32 %0, ptr %2, align 4, !tbaa !14
  %3 = load i32, ptr %2, align 4, !tbaa !14
  %4 = call i32 @llvm.bswap.i32(i32 %3)
  ret i32 %4
}

; Function Attrs: inlinehint nounwind uwtable
define internal void @MEM_write32(ptr noundef %0, i32 noundef %1) #1 {
  %3 = alloca ptr, align 8
  %4 = alloca i32, align 4
  store ptr %0, ptr %3, align 8, !tbaa !8
  store i32 %1, ptr %4, align 4, !tbaa !14
  %5 = load i32, ptr %4, align 4, !tbaa !14
  %6 = load ptr, ptr %3, align 8, !tbaa !8
  store i32 %5, ptr %6, align 1, !tbaa !14
  ret void
}

; Function Attrs: inlinehint nounwind uwtable
define internal i32 @MEM_isLittleEndian() #1 {
  ret i32 1
}

; Function Attrs: nounwind uwtable
define internal i32 @ERR_isError(i64 noundef %0) #0 {
  %2 = alloca i64, align 8
  store i64 %0, ptr %2, align 8, !tbaa !4
  %3 = load i64, ptr %2, align 8, !tbaa !4
  %4 = icmp ugt i64 %3, -120
  %5 = zext i1 %4 to i32
  ret i32 %5
}

; Function Attrs: inlinehint nounwind uwtable
define internal void @MEM_writeLE32(ptr noundef %0, i32 noundef %1) #1 {
  %3 = alloca ptr, align 8
  %4 = alloca i32, align 4
  store ptr %0, ptr %3, align 8, !tbaa !8
  store i32 %1, ptr %4, align 4, !tbaa !14
  %5 = call i32 @MEM_isLittleEndian()
  %6 = icmp ne i32 %5, 0
  br i1 %6, label %7, label %10

7:                                                ; preds = %2
  %8 = load ptr, ptr %3, align 8, !tbaa !8
  %9 = load i32, ptr %4, align 4, !tbaa !14
  call void @MEM_write32(ptr noundef %8, i32 noundef %9)
  br label %14

10:                                               ; preds = %2
  %11 = load ptr, ptr %3, align 8, !tbaa !8
  %12 = load i32, ptr %4, align 4, !tbaa !14
  %13 = call i32 @MEM_swap32(i32 noundef %12)
  call void @MEM_write32(ptr noundef %11, i32 noundef %13)
  br label %14

14:                                               ; preds = %10, %7
  ret void
}

; Function Attrs: nounwind uwtable
define dso_local i32 @ZDICT_isError(i64 noundef %0) #0 {
  %2 = alloca i64, align 8
  store i64 %0, ptr %2, align 8, !tbaa !4
  %3 = load i64, ptr %2, align 8, !tbaa !4
  %4 = call i32 @ERR_isError(i64 noundef %3)
  ret i32 %4
}

; Function Attrs: nounwind uwtable
define internal i64 @ZDICT_addEntropyTablesFromBuffer_advanced(ptr noundef %0, i64 noundef %1, i64 noundef %2, ptr noundef %3, ptr noundef %4, i32 noundef %5, ptr noundef byval(%struct.ZDICT_params_t) align 8 %6) #0 {
  %8 = alloca i64, align 8
  %9 = alloca ptr, align 8
  %10 = alloca i64, align 8
  %11 = alloca i64, align 8
  %12 = alloca ptr, align 8
  %13 = alloca ptr, align 8
  %14 = alloca i32, align 4
  %15 = alloca i32, align 4
  %16 = alloca i32, align 4
  %17 = alloca i64, align 8
  %18 = alloca i64, align 8
  %19 = alloca i32, align 4
  %20 = alloca i64, align 8
  %21 = alloca i32, align 4
  %22 = alloca i32, align 4
  store ptr %0, ptr %9, align 8, !tbaa !8
  store i64 %1, ptr %10, align 8, !tbaa !4
  store i64 %2, ptr %11, align 8, !tbaa !4
  store ptr %3, ptr %12, align 8, !tbaa !8
  store ptr %4, ptr %13, align 8, !tbaa !12
  store i32 %5, ptr %14, align 4, !tbaa !14
  call void @llvm.lifetime.start.p0(i64 4, ptr %15) #9
  %23 = getelementptr inbounds nuw %struct.ZDICT_params_t, ptr %6, i32 0, i32 0
  %24 = load i32, ptr %23, align 8, !tbaa !16
  %25 = icmp eq i32 %24, 0
  br i1 %25, label %26, label %27

26:                                               ; preds = %7
  br label %30

27:                                               ; preds = %7
  %28 = getelementptr inbounds nuw %struct.ZDICT_params_t, ptr %6, i32 0, i32 0
  %29 = load i32, ptr %28, align 8, !tbaa !16
  br label %30

30:                                               ; preds = %27, %26
  %31 = phi i32 [ 3, %26 ], [ %29, %27 ]
  store i32 %31, ptr %15, align 4, !tbaa !14
  call void @llvm.lifetime.start.p0(i64 4, ptr %16) #9
  %32 = getelementptr inbounds nuw %struct.ZDICT_params_t, ptr %6, i32 0, i32 1
  %33 = load i32, ptr %32, align 4, !tbaa !18
  store i32 %33, ptr %16, align 4, !tbaa !14
  call void @llvm.lifetime.start.p0(i64 8, ptr %17) #9
  store i64 8, ptr %17, align 8, !tbaa !4
  %34 = load i32, ptr %16, align 4, !tbaa !14
  %35 = icmp uge i32 %34, 2
  br i1 %35, label %36, label %41

36:                                               ; preds = %30
  %37 = load ptr, ptr @stderr, align 8, !tbaa !20
  %38 = call i32 (ptr, ptr, ...) @fprintf(ptr noundef %37, ptr noundef @.str, ptr noundef @.str.1) #9
  %39 = load ptr, ptr @stderr, align 8, !tbaa !20
  %40 = call i32 @fflush(ptr noundef %39)
  br label %41

41:                                               ; preds = %36, %30
  %42 = load i32, ptr %16, align 4, !tbaa !14
  %43 = icmp uge i32 %42, 2
  br i1 %43, label %44, label %49

44:                                               ; preds = %41
  %45 = load ptr, ptr @stderr, align 8, !tbaa !20
  %46 = call i32 (ptr, ptr, ...) @fprintf(ptr noundef %45, ptr noundef @.str.2) #9
  %47 = load ptr, ptr @stderr, align 8, !tbaa !20
  %48 = call i32 @fflush(ptr noundef %47)
  br label %49

49:                                               ; preds = %44, %41
  call void @llvm.lifetime.start.p0(i64 8, ptr %18) #9
  %50 = load ptr, ptr %9, align 8, !tbaa !8
  %51 = load i64, ptr %17, align 8, !tbaa !4
  %52 = getelementptr inbounds nuw i8, ptr %50, i64 %51
  %53 = load i64, ptr %11, align 8, !tbaa !4
  %54 = load i64, ptr %17, align 8, !tbaa !4
  %55 = sub i64 %53, %54
  %56 = load i32, ptr %15, align 4, !tbaa !14
  %57 = load ptr, ptr %12, align 8, !tbaa !8
  %58 = load ptr, ptr %13, align 8, !tbaa !12
  %59 = load i32, ptr %14, align 4, !tbaa !14
  %60 = load ptr, ptr %9, align 8, !tbaa !8
  %61 = load i64, ptr %11, align 8, !tbaa !4
  %62 = getelementptr inbounds nuw i8, ptr %60, i64 %61
  %63 = load i64, ptr %10, align 8, !tbaa !4
  %64 = sub i64 0, %63
  %65 = getelementptr inbounds i8, ptr %62, i64 %64
  %66 = load i64, ptr %10, align 8, !tbaa !4
  %67 = load i32, ptr %16, align 4, !tbaa !14
  %68 = call i64 @ZDICT_analyzeEntropy(ptr noundef %52, i64 noundef %55, i32 noundef %56, ptr noundef %57, ptr noundef %58, i32 noundef %59, ptr noundef %65, i64 noundef %66, i32 noundef %67)
  store i64 %68, ptr %18, align 8, !tbaa !4
  %69 = load i64, ptr %18, align 8, !tbaa !4
  %70 = call i32 @ZDICT_isError(i64 noundef %69)
  %71 = icmp ne i32 %70, 0
  br i1 %71, label %72, label %74

72:                                               ; preds = %49
  %73 = load i64, ptr %18, align 8, !tbaa !4
  store i64 %73, ptr %8, align 8
  store i32 1, ptr %19, align 4
  br label %78

74:                                               ; preds = %49
  %75 = load i64, ptr %18, align 8, !tbaa !4
  %76 = load i64, ptr %17, align 8, !tbaa !4
  %77 = add i64 %76, %75
  store i64 %77, ptr %17, align 8, !tbaa !4
  store i32 0, ptr %19, align 4
  br label %78

78:                                               ; preds = %74, %72
  call void @llvm.lifetime.end.p0(i64 8, ptr %18) #9
  %79 = load i32, ptr %19, align 4
  switch i32 %79, label %137 [
    i32 0, label %80
  ]

80:                                               ; preds = %78
  %81 = load ptr, ptr %9, align 8, !tbaa !8
  call void @MEM_writeLE32(ptr noundef %81, i32 noundef -332356553)
  call void @llvm.lifetime.start.p0(i64 8, ptr %20) #9
  %82 = load ptr, ptr %9, align 8, !tbaa !8
  %83 = load i64, ptr %11, align 8, !tbaa !4
  %84 = getelementptr inbounds nuw i8, ptr %82, i64 %83
  %85 = load i64, ptr %10, align 8, !tbaa !4
  %86 = sub i64 0, %85
  %87 = getelementptr inbounds i8, ptr %84, i64 %86
  %88 = load i64, ptr %10, align 8, !tbaa !4
  %89 = call i64 @ZSTD_XXH64(ptr noundef %87, i64 noundef %88, i64 noundef 0)
  store i64 %89, ptr %20, align 8, !tbaa !4
  call void @llvm.lifetime.start.p0(i64 4, ptr %21) #9
  %90 = load i64, ptr %20, align 8, !tbaa !4
  %91 = urem i64 %90, 2147450880
  %92 = add i64 %91, 32768
  %93 = trunc i64 %92 to i32
  store i32 %93, ptr %21, align 4, !tbaa !14
  call void @llvm.lifetime.start.p0(i64 4, ptr %22) #9
  %94 = getelementptr inbounds nuw %struct.ZDICT_params_t, ptr %6, i32 0, i32 2
  %95 = load i32, ptr %94, align 8, !tbaa !19
  %96 = icmp ne i32 %95, 0
  br i1 %96, label %97, label %100

97:                                               ; preds = %80
  %98 = getelementptr inbounds nuw %struct.ZDICT_params_t, ptr %6, i32 0, i32 2
  %99 = load i32, ptr %98, align 8, !tbaa !19
  br label %102

100:                                              ; preds = %80
  %101 = load i32, ptr %21, align 4, !tbaa !14
  br label %102

102:                                              ; preds = %100, %97
  %103 = phi i32 [ %99, %97 ], [ %101, %100 ]
  store i32 %103, ptr %22, align 4, !tbaa !14
  %104 = load ptr, ptr %9, align 8, !tbaa !8
  %105 = getelementptr inbounds i8, ptr %104, i64 4
  %106 = load i32, ptr %22, align 4, !tbaa !14
  call void @MEM_writeLE32(ptr noundef %105, i32 noundef %106)
  call void @llvm.lifetime.end.p0(i64 4, ptr %22) #9
  call void @llvm.lifetime.end.p0(i64 4, ptr %21) #9
  call void @llvm.lifetime.end.p0(i64 8, ptr %20) #9
  %107 = load i64, ptr %17, align 8, !tbaa !4
  %108 = load i64, ptr %10, align 8, !tbaa !4
  %109 = add i64 %107, %108
  %110 = load i64, ptr %11, align 8, !tbaa !4
  %111 = icmp ult i64 %109, %110
  br i1 %111, label %112, label %123

112:                                              ; preds = %102
  %113 = load ptr, ptr %9, align 8, !tbaa !8
  %114 = load i64, ptr %17, align 8, !tbaa !4
  %115 = getelementptr inbounds nuw i8, ptr %113, i64 %114
  %116 = load ptr, ptr %9, align 8, !tbaa !8
  %117 = load i64, ptr %11, align 8, !tbaa !4
  %118 = getelementptr inbounds nuw i8, ptr %116, i64 %117
  %119 = load i64, ptr %10, align 8, !tbaa !4
  %120 = sub i64 0, %119
  %121 = getelementptr inbounds i8, ptr %118, i64 %120
  %122 = load i64, ptr %10, align 8, !tbaa !4
  call void @llvm.memmove.p0.p0.i64(ptr align 1 %115, ptr align 1 %121, i64 %122, i1 false)
  br label %123

123:                                              ; preds = %112, %102
  %124 = load i64, ptr %11, align 8, !tbaa !4
  %125 = load i64, ptr %17, align 8, !tbaa !4
  %126 = load i64, ptr %10, align 8, !tbaa !4
  %127 = add i64 %125, %126
  %128 = icmp ult i64 %124, %127
  br i1 %128, label %129, label %131

129:                                              ; preds = %123
  %130 = load i64, ptr %11, align 8, !tbaa !4
  br label %135

131:                                              ; preds = %123
  %132 = load i64, ptr %17, align 8, !tbaa !4
  %133 = load i64, ptr %10, align 8, !tbaa !4
  %134 = add i64 %132, %133
  br label %135

135:                                              ; preds = %131, %129
  %136 = phi i64 [ %130, %129 ], [ %134, %131 ]
  store i64 %136, ptr %8, align 8
  store i32 1, ptr %19, align 4
  br label %137

137:                                              ; preds = %135, %78
  call void @llvm.lifetime.end.p0(i64 8, ptr %17) #9
  call void @llvm.lifetime.end.p0(i64 4, ptr %16) #9
  call void @llvm.lifetime.end.p0(i64 4, ptr %15) #9
  %138 = load i64, ptr %8, align 8
  ret i64 %138
}